; Function Attrs: mustprogress nounwind uwtable
define hidden void @_ZN5JVMCI19initialize_compilerEP10JavaThread(ptr noundef %0) local_unnamed_addr #0 align 2 {
  %2 = load ptr, ptr @JVMCILibDumpJNIConfig, align 8
  %.not = icmp eq ptr %2, null
  br i1 %.not, label %5, label %3

3:                                                ; preds = %1
  tail call void @_ZN8JNIJVMCI14initialize_idsEP7JNIEnv_(ptr noundef null) #13
  %4 = load ptr, ptr @g_assert_poison, align 8
  store i8 88, ptr %4, align 1
  tail call void @_Z28report_should_not_reach_herePKci(ptr noundef nonnull @.str.4, i32 noundef 155) #14
  unreachable

5:                                                ; preds = %1
  %6 = load i8, ptr @UseJVMCINativeLibrary, align 1
  %7 = trunc i8 %6 to i1
  br i1 %7, label %8, label %14

8:                                                ; preds = %5
  %9 = getelementptr inbounds i8, ptr %0, i64 1176
  %10 = load ptr, ptr %9, align 8
  %11 = icmp eq ptr %10, null
  br i1 %11, label %12, label %_ZN5JVMCI16compiler_runtimeEP10JavaThreadb.exit

12:                                               ; preds = %8
  %13 = tail call noundef ptr @_ZN12JVMCIRuntime10for_threadEP10JavaThread(ptr noundef nonnull %0) #13
  br label %_ZN5JVMCI16compiler_runtimeEP10JavaThreadb.exit

14:                                               ; preds = %5
  %15 = load ptr, ptr @_ZN5JVMCI13_java_runtimeE, align 8
  br label %_ZN5JVMCI16compiler_runtimeEP10JavaThreadb.exit

_ZN5JVMCI16compiler_runtimeEP10JavaThreadb.exit:  ; preds = %12, %8, %14
  %.0 = phi ptr [ %15, %14 ], [ %13, %12 ], [ %10, %8 ]
  tail call void @_ZN12JVMCIRuntime16call_getCompilerEP10JavaThread(ptr noundef nonnull align 8 dereferenceable(93) %.0, ptr noundef %0) #13
  ret void
}